(lp0
(S'35.2'
p1
(lp2
tp3
a(S'5.72'
p4
(lp5
tp6
a(S'91.5'
p7
(lp8
tp9
a(S'94.2'
p10
(lp11
tp12
a(S'43.1'
p13
(lp14
tp15
a(S'124.3'
p16
(lp17
tp18
a(S'42.2'
p19
(lp20
tp21
a(S'107.4'
p22
(lp23
tp24
a(S'91.4'
p25
(lp26
tp27
a(S'119.4'
p28
(lp29
tp30
a(S'51.2'
p31
(lp32
tp33
a(S'62.6'
p34
(lp35
tp36
a(S'40.2'
p37
(lp38
tp39
a(S'54.2'
p40
(lp41
tp42
a(S'55.2'
p43
(lp44
tp45
a(S'107.2'
p46
(lp47
tp48
a(S'139.2'
p49
(lp50
tp51
a(S'131.5'
p52
(lp53
tp54
a(S'2.2'
p55
(lp56
tp57
a(S'124.5'
p58
(lp59
tp60
a(S'102.3'
p61
(lp62
tp63
a(S'77.9'
p64
(lp65
tp66
a(S'14.3'
p67
(lp68
tp69
a(S'62.4'
p70
(lp71
tp72
a(S'131.3'
p73
(lp74
tp75
a(S'77.4'
p76
(lp77
tp78
a(S'102.2'
p79
(lp80
tp81
a(S'96.2'
p82
(lp83
tp84
a(S'119.5'
p85
(lp86
tp87
a(S'93.3'
p88
(lp89
tp90
a(S'139.3'
p91
(lp92
tp93
a(S'94.9'
p94
(lp95
tp96
a(S'119.2'
p97
(lp98
tp99
a(S'74.2'
p100
(lp101
tp102
a(S'4.2'
p103
(lp104
tp105
a(S'94.6'
p106
(lp107
tp108
a(S'52.4'
p109
(lp110
tp111
a(S'57.2'
p112
(lp113
tp114
a(S'77.6'
p115
(lp116
tp117
a(S'145.3'
p118
(lp119
tp120
a(S'104.2'
p121
(lp122
tp123
a(S'101.2'
p124
(lp125
tp126
a(S'29.3'
p127
(lp128
tp129
a(S'14.5'
p130
(lp131
tp132
a(S'77.3'
p133
(lp134
tp135
a(S'29.5'
p136
(lp137
tp138
a(S'107.3'
p139
(lp140
tp141
a(S'34.2'
p142
(lp143
tp144
a(S'33.2'
p145
(lp146
tp147
a(S'29.7'
p148
(lp149
tp150
a(S'124.4'
p151
(lp152
tp153
a(S'29.8'
p154
(lp155
tp156
a(S'48.2'
p157
(lp158
tp159
a(S'119.3'
p160
(lp161
tp162
a(S'50.2'
p163
(lp164
tp165
a(S'73.5'
p166
(lp167
tp168
a(S'50.5'
p169
(lp170
tp171
a(S'16.182'
p172
(lp173
tp174
a(S'143.2'
p175
(lp176
tp177
a(S'65.2'
p178
(lp179
tp180
a(S'9.103'
p181
(lp182
tp183
a(S'1.33'
p184
(lp185
tp186
a(S'77.8'
p187
(lp188
tp189
a(S'38.3'
p190
(lp191
tp192
a(S'16.2'
p193
(lp194
tp195
a(S'64.2'
p196
(lp197
tp198
a(S'69.3'
p199
(lp200
tp201
a(S'94.8'
p202
(lp203
tp204
a(S'14.4'
p205
(lp206
tp207
a(S'8.2'
p208
(lp209
tp210
a(S'59.3'
p211
(lp212
tp213
a(S'52.3'
p214
(lp215
tp216
a(S'55.3'
p217
(lp218
tp219
a(S'77.7'
p220
(lp221
tp222
a(S'73.4'
p223
(lp224
tp225
a(S'11.1'
p226
(lp227
tp228
a(S'97.2'
p229
(lp230
tp231
a(S'130.3'
p232
(lp233
tp234
a(S'131.1'
p235
(lp236
tp237
a(S'12.2'
p238
(lp239
tp240
a(S'125.4'
p241
(lp242
tp243
a(S'131.4'
p244
(lp245
tp246
a(S'122.2'
p247
(lp248
tp249
a(S'89.2'
p250
(lp251
tp252
a(S'85.2'
p253
(lp254
tp255
a(S'15.2'
p256
(lp257
tp258
a(S'94.7'
p259
(lp260
tp261
a(S'124.8'
p262
(lp263
tp264
a(S'128.3'
p265
(lp266
tp267
a(S'29.4'
p268
(lp269
tp270
a(S'86.1'
p271
(lp272
tp273
a(S'50.3'
p274
(lp275
tp276
a(S'59.2'
p277
(lp278
tp279
a(S'9.2'
p280
(lp281
tp282
a(S'41.2'
p283
(lp284
tp285
a(S'140.2'
p286
(lp287
tp288
a(S'118.3'
p289
(lp290
tp291
a(S'72.2'
p292
(lp293
tp294
a(S'107.5'
p295
(lp296
tp297
a(S'94.5'
p298
(lp299
tp300
a(S'21.1'
p301
(lp302
tp303
a(S'29.2'
p304
(lp305
tp306
a(S'49.2'
p307
(lp308
tp309
a(S'62.8'
p310
(lp311
tp312
a(S'46.2'
p313
(lp314
tp315
a(S'142.3'
p316
(lp317
tp318
a(S'134.2'
p319
(lp320
tp321
a(S'47.2'
p322
(lp323
tp324
a(S'31.2'
p325
(lp326
tp327
a(S'120.2'
p328
(lp329
tp330
a(S'122.3'
p331
(lp332
tp333
a(S'1.31'
p334
(lp335
tp336
a(S'125.3'
p337
(lp338
tp339
a(S'49.3'
p340
(lp341
tp342
a(S'103.5'
p343
(lp344
tp345
a(S'126.2'
p346
(lp347
tp348
a(S'38.4'
p349
(lp350
tp351
a(S'62.5'
p352
(lp353
tp354
a(S'130.2'
p355
(lp356
tp357
a(S'142.2'
p358
(lp359
tp360
a(S'105.2'
p361
(lp362
tp363
a(S'145.2'
p364
(lp365
tp366
a(S'29.6'
p367
(lp368
tp369
a(S'68.2'
p370
(lp371
tp372
a(S'81.2'
p373
(lp374
tp375
a(S'39.2'
p376
(lp377
tp378
a(S'84.2'
p379
(lp380
tp381
a(S'30.2'
p382
(lp383
tp384
a(S'86.2'
p385
(lp386
tp387
a(S'50.7'
p388
(lp389
tp390
a(S'94.4'
p391
(lp392
tp393
a(S'124.1'
p394
(lp395
tp396
a(S'81.3'
p397
(lp398
tp399
a(S'85.3'
p400
(lp401
tp402
a(S'103.4'
p403
(lp404
tp405
a(S'5.2'
p406
(lp407
tp408
a(S'91.2'
p409
(lp410
tp411
a(S'62.3'
p412
(lp413
tp414
a(S'87.2'
p415
(lp416
tp417
a(S'95.2'
p418
(lp419
tp420
a(S'14.6'
p421
(lp422
tp423
a(S'136.2'
p424
(lp425
tp426
a(S'38.2'
p427
(lp428
tp429
a(S'75.2'
p430
(lp431
tp432
a(S'17.2'
p433
(lp434
tp435
a(S'58.2'
p436
(lp437
tp438
a(S'61.2'
p439
(lp440
tp441
a(S'77.5'
p442
(lp443
tp444
a(S'62.7'
p445
(lp446
tp447
a(S'50.4'
p448
(lp449
tp450
a(S'109.2'
p451
(lp452
tp453
a(S'82.3'
p454
(lp455
tp456
a(S'69.2'
p457
(lp458
tp459
a(S'111.3'
p460
(lp461
tp462
a(S'115.2'
p463
(lp464
tp465
a(S'110.3'
p466
(lp467
tp468
a(S'110.5'
p469
(lp470
tp471
a(S'5.71'
p472
(lp473
tp474
a(S'70.2'
p475
(lp476
tp477
a(S'133.2'
p478
(lp479
tp480
a(S'79.2'
p481
(lp482
tp483
a(S'132.2'
p484
(lp485
tp486
a(S'129.2'
p487
(lp488
tp489
a(S'119.6'
p490
(lp491
tp492
a(S'67.2'
p493
(lp494
tp495
a(S'1.32'
p496
(lp497
tp498
a(S'78.2'
p499
(lp500
tp501
a(S'16.181'
p502
(lp503
tp504
a(S'82.4'
p505
(lp506
tp507
a(S'59.4'
p508
(lp509
tp510
a(S'118.2'
p511
(lp512
tp513
a(S'93.2'
p514
(lp515
tp516
a(S'121.2'
p517
(lp518
tp519
a(S'26.2'
p520
(lp521
tp522
a(S'62.2'
p523
(lp524
tp525
a(S'66.2'
p526
(lp527
tp528
a(S'82.2'
p529
(lp530
tp531
a(S'45.2'
p532
(lp533
tp534
a(S'112.3'
p535
(lp536
tp537
a(S'81.4'
p538
(lp539
tp540
a(S'52.2'
p541
(lp542
tp543
a(S'38.5'
p544
(lp545
tp546
a(S'1.34'
p547
(lp548
tp549
a(S'59.5'
p550
(lp551
tp552
a(S'23.2'
p553
(lp554
tp555
a(S'64.3'
p556
(lp557
tp558
a(S'111.4'
p559
(lp560
tp561
a(S'91.3'
p562
(lp563
tp564
a(S'98.2'
p565
(lp566
tp567
a(S'138.3'
p568
(lp569
tp570
a(S'9.102'
p571
(lp572
tp573
a(S'32.2'
p574
(lp575
tp576
a(S'99.2'
p577
(lp578
tp579
a(S'19.2'
p580
(lp581
tp582
a(S'20.2'
p583
(lp584
tp585
a(S'14.2'
p586
(lp587
tp588
a(S'138.2'
p589
(lp590
tp591
a(S'75.3'
p592
(lp593
tp594
a(S'103.3'
p595
(lp596
tp597
a(S'19.3'
p598
(lp599
tp600
a(S'9.101'
p601
(lp602
tp603
a(S'71.3'
p604
(lp605
tp606
a(S'125.2'
p607
(lp608
tp609
a(S'37.2'
p610
(lp611
tp612
a(S'110.2'
p613
(lp614
tp615
a(S'76.3'
p616
(lp617
tp618
a(S'71.2'
p619
(lp620
tp621
a(S'71.4'
p622
(lp623
tp624
a(S'111.2'
p625
(lp626
tp627
a.