(dp0
S'112.3'
p1
S'Bart Claessen & Dave Schiemann - Madness (Super8 & Tab Remix)'
p2
sS'66'
p3
S'Mike Koglin vs. Mark Pledger - Ultraviolet (Original Mix)'
p4
sS'58.2'
p5
S'Dan Stone - Made In Bahrain (Orkan Remix)'
p6
sS'35.2'
p7
S'Endre - I Kill For You (Probspot Remix)'
p8
sS'42'
p9
S'Above & Beyond pres. Tranquility Base - Getting Away (Original Mix)'
p10
sS'102.2'
p11
S'Anhken - First Division (Planisphere Remix)'
p12
sS'102.3'
p13
S'Anhken - First Division (Planisphere Extended Remix)'
p14
sS'52.3'
p15
S"Carrie Skipper - Time Goes By (Super8 Bangin' Mix)"
p16
sS'52.2'
p17
S'Carrie Skipper - Time Goes By (David West Mix)'
p18
sS'29.3'
p19
S'Above & Beyond - No One On Earth (Gabriel & Dresden Dub Mix)'
p20
sS'43'
p21
S'Yilmaz Altanhan - Eighties (Original Mix)'
p22
sS'133'
p23
S'Activa pres. Solar Movement - Eclipse (Original Mix)'
p24
sS'12.2'
p25
S'Rollerball - Albinoni (Super8 Remix)'
p26
sS'131'
p27
S'Above & Beyond pres. Oceanlab - Lonely Girl (Original Mix)'
p28
sS'130'
p29
S'Sunny Lax - Reborn (Original Mix)'
p30
sS'140.2'
p31
S'Mat Zo - Nuclear Fusion (Rex Mundi Remix)'
p32
sS'136'
p33
S'Dan Stone - Mumbai (Original Mix)'
p34
sS'134'
p35
S'Cold Blue - Mount Everest (Original Mix)'
p36
sS'97.2'
p37
S'Mike Koglin & Mark Pledger - All The Way (Nick Larson Remix)'
p38
sS'50.4'
p39
S'Oceanlab - Sirens Of The Sea (Kyau vs. Albert Vocal Mix)'
p40
sS'37.2'
p41
S'Super8 - Cre8 (Mirco De Govia Remix)'
p42
sS'138'
p43
S'Above & Beyond - Anjunabeach (Original Mix)'
p44
sS'104.2'
p45
S'Boom Jinx feat. Key - Eternal Reminiscence (Oliver Smith Remix)'
p46
sS'50.3'
p47
S'Oceanlab - Sirens Of The Sea (Sonorous Remix)'
p48
sS'50.2'
p49
S'Oceanlab - Sirens Of The Sea (Cosmic Gate Vocal Mix)'
p50
sS'67'
p51
S'Sunny Lax - M.I.R.A. (Original Mix)'
p52
sS'74.2'
p53
S'Signalrunners - Aria Epica (Bart Claessen Remix)'
p54
sS'26'
p55
S'Jono Grant vs. Mike Koglin - Circuits (Original Mix)'
p56
sS'20'
p57
S'Kyau vs Albert - Velvet Morning (Mirco De Govia Remix)'
p58
sS'21'
p59
S'Endre - Kallocain (Original Mix)'
p60
sS'29.2'
p61
S'Above & Beyond - No One On Earth (Gabriel & Dresden Remix)'
p62
sS'23'
p63
S'Oceanlab - Satellite (Original Above & Beyond Mix)'
p64
sS'43.1'
p65
S'Yilmaz Altanhan - Eighties (Ozgur Can Mix)'
p66
sS'95.2'
p67
S'Nitrous Oxide - Amnesia (Vardran Amnesiac Remix)'
p68
sS'29'
p69
S'Above & Beyond - No One On Earth (Original Mix)'
p70
sS'131.3'
p71
S'Above & Beyond pres. Oceanlab - Lonely Girl (Ronski Speed Remix)'
p72
sS'46'
p73
S'Super8 + DJ Tab - First Aid (Original Mix)'
p74
sS'76.3'
p75
S"Daniel Kandi - Nova (Daniel vs. Kris O'Neil Remix)"
p76
sS'16.2'
p77
S'Oceanlab - Beautiful Together (Signum Remix)'
p78
sS'8'
p79
S'Aalto - Liquid Sweep (Original Mix)'
p80
sS'68'
p81
S'Mike Shiver - Morning Drive (Original Mix)'
p82
sS'121.2'
p83
S'Signalrunners - Meet Me In Montauk (Oliver Smith Remix)'
p84
sS'52.4'
p85
S'Carrie Skipper - Time Goes By (Floris De Haan Remix)'
p86
sS'126.2'
p87
S'Adam Nickey - Slider (Sean Tyas Remix)'
p88
sS'142.2'
p89
S'Mike Koglin vs P.O.S. - Autumn (Neptune Project Remix)'
p90
sS'142.3'
p91
S'Mike Koglin vs P.O.S. - Autumn (Tempo Guisto Remix)'
p92
sS'45.2'
p93
S'Kaste - Desert Eagle (Smith & Pledger Mix)'
p94
sS'69.3'
p95
S'Kyau vs. Albert - Are You Fine (Vardran Dub Mix)'
p96
sS'69.2'
p97
S'Kyau vs. Albert - Are You Fine (Markus Schulz Remix)'
p98
sS'120'
p99
S'Oliver Smith - Cirrus (Original Mix)'
p100
sS'121'
p101
S'Signalrunners - Meet Me In Montauk (Original Mix)'
p102
sS'122'
p103
S'Super8 & Tab feat. Alyna - Delusion (Original Mix)'
p104
sS'131.1'
p105
S'Above & Beyond pres. Oceanlab - Lonely Girl (Gareth Emery Remix)'
p106
sS'124'
p107
S'Above & Beyond pres. Oceanlab - On A Good Day (Original Extended Mix)'
p108
sS'125'
p109
S'Boom Jinx & Oliver Smith - Sunrise (Original Mix)'
p110
sS'126'
p111
S'Adam Nickey - Slider (Original Mix)'
p112
sS'77.5'
p113
S'Above & Beyond - Good For Me (King Roc Vocal Mix)'
p114
sS'128'
p115
S'Oliver Smith - Restless (Original Mix)'
p116
sS'129'
p117
S'Mark Eteson & Zirenz - The Hymn (Original Mix)'
p118
sS'26.2'
p119
S"Jono Grant vs. Mike Koglin - Circuits (Jono Grant's Deep Rewire Mix)"
p120
sS'77.6'
p121
S'Above & Beyond - Good For Me (Redanka Vocal Mix)'
p122
sS'14.5'
p123
S'Oceanlab - Sky Falls Down (Armin Van Buuren Instrumental Remix)'
p124
sS'14.4'
p125
S'Oceanlab - Sky Falls Down (Armin Van Buuren Remix)'
p126
sS'14.6'
p127
S'Oceanlab - Sky Falls Down (7 Edit)'
p128
sS'59'
p129
S'Above & Beyond - Alone Tonight (Club Mix)'
p130
sS'58'
p131
S'Dan Stone - Made In Bahrain (Original Mix)'
p132
sS'14.3'
p133
S'Oceanlab - Sky Falls Down (Jc Mix)'
p134
sS'132'
p135
S'Nitrous Oxide - Aurora (Original Mix)'
p136
sS'55'
p137
S'Hidden Logic Pres. Luminary - Amsterdam (Original Mix)'
p138
sS'54'
p139
S'Super8 - Get Off (Original Mix)'
p140
sS'57'
p141
S'Super8 vs DJ Tab - Helsinki Scorchin (Original Mix)'
p142
sS'14.2'
p143
S'Oceanlab - Sky Falls Down (Oceanlab Am Mix)'
p144
sS'51'
p145
S'Aalto - Resolution (Original Mix)'
p146
sS'131.4'
p147
S'Above & Beyond pres. Oceanlab - Lonely Girl (Ercola Remix)'
p148
sS'52'
p149
S'Carrie Skipper - Time Goes By (Super8 Deep Mix)'
p150
sS'133.2'
p151
S'Activa pres. Solar Movement - Eclipse (Mat Zo Remix)'
p152
sS'49.3'
p153
S'Above & Beyond vs. Andy Moor - Air For Life (Airwave Remix)'
p154
sS'49.2'
p155
S'Above & Beyond vs. Andy Moor - Air For Life (Micro De Govia Remix)'
p156
sS'65.2'
p157
S'Daniel Kandi - Breathe (Sunny Lax Remix)'
p158
sS'54.2'
p159
S'Super8 - Get Off (Gabriel Batz Remix)'
p160
sS'118.3'
p161
S'Cramp - Deadline (Front Remix)'
p162
sS'66.2'
p163
S'Mike Koglin vs. Mark Pledger - Ultraviolet (Phatjak Remix)'
p164
sS'107.3'
p165
S'Oceanlab - Miracle (Martin Roth Vocal Remix)'
p166
sS'138.3'
p167
S'Above & Beyond - Anjunabeach (Nitrous Oxide Remix)'
p168
sS'138.2'
p169
S'Above & Beyond - Anjunabeach (Jerome Isma-Ae Remix)'
p170
sS'55.2'
p171
S'Hidden Logic Pres. Luminary - Amsterdam (Smith & Pledger Remix)'
p172
sS'55.3'
p173
S'Hidden Logic Pres. Luminary - Amsterdam (Maor Levi Remix)'
p174
sS'131.5'
p175
S'Above & Beyond pres. Oceanlab - Lonely Girl (Proff Remix)'
p176
sS'34.2'
p177
S'Above & Beyond Pres. Tranquility Base - Surrender (Filterheadz Remix)'
p178
sS'50'
p179
S'Oceanlab - Sirens Of The Sea (Above & Beyond Club Mix)'
p180
sS'115'
p181
S'Sundriver - City Lights (Original Mix)'
p182
sS'50.5'
p183
S'Oceanlab - Sirens Of The Sea (Cosmic Gate Dub)'
p184
sS'89'
p185
S'Mark Pledger vs. Super8 & Tab - Worldwide (Original Mix)'
p186
sS'111'
p187
S'Signalrunners & Julie Thompson - These Shoulders (Original Mix)'
p188
sS'110'
p189
S'Andy Moor - Fake Awake (Original Mix)'
p190
sS'112'
p191
S'Bart Claessen & Dave Schiemann - Madness (I Prefer This Mix)'
p192
sS'82'
p193
S'Stephen J. Kroos - Formalistick (Original Mix)'
p194
sS'2.2'
p195
S'Free State - Different Ways (Dirt Devils Remix)'
p196
sS'81'
p197
S'8 Wonders - Sex On The Beach (Original Mix)'
p198
sS'119'
p199
S'Oceanlab - Breaking Ties (Above & Beyond Analogue Haven Mix)'
p200
sS'87'
p201
S'Remo-Con - Cold Front (Original Mix)'
p202
sS'84'
p203
S'Evbointh - One Wish (Original Mix)'
p204
sS'85'
p205
S'Super8 & Tab - Suru (Original Mix)'
p206
sS'122.2'
p207
S'Super8 & Tab feat. Alyna - Delusion (Ronski Speed Remix)'
p208
sS'122.3'
p209
S'Super8 & Tab feat. Alyna - Delusion (Ronski Speed Pres. Sun Decade Remix)'
p210
sS'20.2'
p211
S'Kyau vs Albert - Velvet Morning (Aalto Remix)'
p212
sS'94.9'
p213
S'Above & Beyond - Home (Stoneface & Terminal Dub)'
p214
sS'94.8'
p215
S'Above & Beyond - Home (Stoneface & Terminal Remix)'
p216
sS'94.5'
p217
S'Above & Beyond - Home (Wippenberg Remix)'
p218
sS'94.4'
p219
S"Above & Beyond - Home (Tony's Deep Remix)"
p220
sS'94.7'
p221
S'Above & Beyond - Home (Michael Badal Remix)'
p222
sS'94.6'
p223
S'Above & Beyond - Home (Jaytech Remix)'
p224
sS'109.2'
p225
S'Super8 & Tab - Elektra (Bart Claessen & Dave Schiemann Remix)'
p226
sS'94.2'
p227
S'Above & Beyond - Home (The Timewriter Remix)'
p228
sS'120.2'
p229
S'Oliver Smith - Cirrus (Oliver Smith Late Night Remix)'
p230
sS'61.2'
p231
S'Kyau vs. Albert - Kiksu (Boom Jinx Remix)'
p232
sS'73.4'
p233
S"Cara Dillon vs. 2Devine - Black Is The Colour (Above & Beyond's Divine Intervention Remix)"
p234
sS'73.5'
p235
S'Cara Dillon vs. 2Devine - Black Is The Colour (2Devine Remix)'
p236
sS'110.5'
p237
S'Andy Moor - Fake Awake (The Blizzard Remix)'
p238
sS'40.2'
p239
S'Mike Koglin vs Jono Grant - Sequential (Pig & Dan Remix)'
p240
sS'11.1'
p241
S'Aalto - Rush (Super8 vs. Orkidea Remix)'
p242
sS'70.2'
p243
S'Untitled Audio (Nitrous Oxide Remix)'
p244
sS'107.2'
p245
S'Oceanlab - Miracle (Michael Cassette Remix)'
p246
sS'1.34'
p247
S'Anjunabeats - Volume One (Free State vs. Dirt Devils Mix)'
p248
sS'47'
p249
S'Lucas & Beltram - Trust Me (Original Mix)'
p250
sS'109'
p251
S'Super8 & Tab - Elektra (Original Mix)'
p252
sS'129.2'
p253
S'Mark Eteson & Zirenz - The Hymn (Activa pres. Solar Movement Remix)'
p254
sS'102'
p255
S'Anhken - First Division (Original Mix)'
p256
sS'103'
p257
S'Mark Pledger vs. Matt Hardwick feat. Melinda Gareh - Fallen Tides (Original Mix)'
p258
sS'42.2'
p259
S'Above & Beyond pres. Tranquility Base - Getting Away (Leama & Moor Remix)'
p260
sS'101'
p261
S'Nitrous Oxide - Waves (Original Mix)'
p262
sS'118'
p263
S'Cramp - Deadline (Anjuna Re-Edit)'
p264
sS'107'
p265
S'Oceanlab - Miracle (Above & Beyond Club Mix)'
p266
sS'104'
p267
S'Boom Jinx feat. Key - Eternal Reminiscence (Original Mix)'
p268
sS'105'
p269
S'Adam Nickey - Shift (Original Mix)'
p270
sS'89.2'
p271
S'Mark Pledger vs. Super8 & Tab - Worldwide (Junk Science Remix)'
p272
sS'39'
p273
S'P.O.S. - Gravity (Original Mix)'
p274
sS'59.3'
p275
S'Above & Beyond - Alone Tonight (Ronski Speed Dub)'
p276
sS'59.4'
p277
S'Above & Beyond - Alone Tonight (Matthew Dekay Remix)'
p278
sS'59.5'
p279
S'Above & Beyond - Alone Tonight (Disciple Of Sound & Kid Lopez Remix)'
p280
sS'62.8'
p281
S"Above & Beyond - Can't Sleep (Ian Carey Dub)"
p282
sS'91.5'
p283
S"Above & Beyond Pres. Tranquility Base - Oceanic (Satoshi Fumi's Thousand Spring Remix)"
p284
sS'33'
p285
S'Smith & Pledger - Believe (Original Mix)'
p286
sS'32'
p287
S'Menno De Jong - Guanxi (Original Mix)'
p288
sS'31'
p289
S'Rusch & Murray - The Promise (Original Mix)'
p290
sS'30'
p291
S'Aalto - Taurine (Original Mix)'
p292
sS'37'
p293
S'Super8 - Cre8 (Original Mix)'
p294
sS'62.3'
p295
S"Above & Beyond - Can't Sleep (Sonorous Dub)"
p296
sS'35'
p297
S'Endre - I Kill For You (Original Mix)'
p298
sS'34'
p299
S'Above & Beyond Pres. Tranquility Base - Surrender (Original Mix)'
p300
sS'115.2'
p301
S'Sundriver - City Lights (Daniel Kandi Remix)'
p302
sS'136.2'
p303
S'Dan Stone - Mumbai (Cressida Remix)'
p304
sS'57.2'
p305
S'Super8 vs DJ Tab - Helsinki Scorchin (Alex M.O.R.P.H. Remix)'
p306
sS'23.2'
p307
S'Oceanlab - Satellite (Markus Schulz Coldharbour Mix)'
p308
sS'32.2'
p309
S'Menno De Jong - Guanxi (Super8 Remix)'
p310
sS'29.8'
p311
S'Above & Beyond - No One On Earth (Chill Out Mix)'
p312
sS'91.4'
p313
S"Above & Beyond Pres. Tranquility Base - Oceanic (Satoshi Fumi's Unduation Remix)"
p314
sS'67.2'
p315
S'Sunny Lax - M.I.R.A. (Daniel Kandi Remix)'
p316
sS'33.2'
p317
S"Smith & Pledger - Believe (Smith & Pledger's 2004 Remix)"
p318
sS'91.3'
p319
S'Above & Beyond Pres. Tranquility Base - Oceanic (Sean Tyas Remix)'
p320
sS'105.2'
p321
S'Adam Nickey - Shift (Tom Cloud Remix)'
p322
sS'82.4'
p323
S'Stephen J. Kroos - Formalistick (Mhiniteck Remiks)'
p324
sS'61'
p325
S'Kyau vs. Albert - Kiksu (Original Mix)'
p326
sS'62'
p327
S"Above & Beyond - Can't Sleep (Original Mix)"
p328
sS'17.2'
p329
S'Rusch & Murray - Epic (Above & Beyond Remix)'
p330
sS'64'
p331
S'Super8 & P.O.S Pres. Aalto - 5 (Original Mix)'
p332
sS'65'
p333
S'Daniel Kandi - Breathe (Original Mix)'
p334
sS'82.2'
p335
S'Stephen J. Kroos - Formalistick (Leon Bolier Remix)'
p336
sS'82.3'
p337
S'Stephen J. Kroos - Formalistick (Stephen J. Kroos Remix)'
p338
sS'139.2'
p339
S'Super8 & Tab - Irufushi (Ashley Wallbridge Remix)'
p340
sS'139.3'
p341
S'Super8 & Tab - Irufushi (Sean Tyas Remix)'
p342
sS'39.2'
p343
S"P.O.S. - Gravity (Arksun's Voyage Mix)"
p344
sS'78.2'
p345
S'Super8 & Tab - Needs To Feel (Wippenberg Remix)'
p346
sS'8.2'
p347
S'Aalto - Liquid Sweep (Super8 Remix)'
p348
sS'21.1'
p349
S'Endre - Kallocain (Robert Nickson Mix)'
p350
sS'69'
p351
S'Kyau vs. Albert - Are You Fine (Original Mix)'
p352
sS'77.8'
p353
S'Above & Beyond - Good For Me (King Roc Dub Mix)'
p354
sS'139'
p355
S'Super8 & Tab - Irufushi (Original Mix)'
p356
sS'145'
p357
S'Lange pres. Firewall - Wanderlust (Original Mix)'
p358
sS'119.6'
p359
S'Oceanlab - Breaking Ties (Flow Mix)'
p360
sS'125.3'
p361
S'Boom Jinx & Oliver Smith - Sunrise (Jaytech Remix)'
p362
sS'2'
p363
S'Free State - Different Ways (Original Mix)'
p364
sS'125.4'
p365
S'Boom Jinx & Oliver Smith - Sunrise (Van Der Vleutens Sunset Remix)'
p366
sS'72.2'
p367
S'Mark Pledger - On The Edge (Mike Shivers Catching Sun Remix)'
p368
sS'125.2'
p369
S'Boom Jinx & Oliver Smith - Sunrise (Volume Six Edit)'
p370
sS'75.2'
p371
S"Sonicvibe Pres. Vardran - Lightform (Vardran's Chunky Funky Mix)"
p372
sS'16.181'
p373
S'Oceanlab - Beautiful Together (Seraque Remix)'
p374
sS'16.182'
p375
S"Oceanlab - Beautiful Together (Sylvester's Sunrise Remix)"
p376
sS'4'
p377
S'Free State - Release (Original Mix)'
p378
sS'71.2'
p379
S"Super8 & Tab - Won't Sleep Tonight (Moody Dub Mix)"
p380
sS'71.3'
p381
S"Super8 & Tab - Won't Sleep Tonight (Original Dub Mix)"
p382
sS'9'
p383
S'Above & Beyond - Far From In Love (Original Mix)'
p384
sS'101.2'
p385
S'Nitrous Oxide - Waves (Signalrunners Remix)'
p386
sS'71.4'
p387
S"Super8 & Tab - Won't Sleep Tonight (Moody Vocal Mix)"
p388
sS'62.2'
p389
S"Above & Beyond - Can't Sleep (Sonorous Remix)"
p390
sS'77.9'
p391
S'Above & Beyond - Good For Me (Funktional Djs Down and Out Breaks Remix)'
p392
sS'142'
p393
S'Mike Koglin vs P.O.S. - Autumn (Original Mix)'
p394
sS'41.2'
p395
S'Alt+F4 - Alt+F4 (Matthew Adams Introspective Remix)'
p396
sS'99'
p397
S'Signalrunners - Electric Sheep (Original Mix)'
p398
sS'98'
p399
S'Above & Beyond Pres. Tranquility Base - Buzz (Original Mix)'
p400
sS'38'
p401
S'Stephen J. Kroos - Sadistick (Original Mix)'
p402
sS'103.3'
p403
S'Mark Pledger vs. Matt Hardwick feat. Melinda Gareh - Fallen Tides (12 Inch Dub)'
p404
sS'84.2'
p405
S'Evbointh - One Wish (Daniel Kandi & Mark Andrez Remix)'
p406
sS'75.3'
p407
S'Sonicvibe Pres. Vardran - Lightform (Sassot Remix)'
p408
sS'93'
p409
S'Adam Nickey - Never Gone (Above & Beyond Respray)'
p410
sS'95'
p411
S'Nitrous Oxide - Amnesia (Original Mix)'
p412
sS'94'
p413
S'Above & Beyond - Home (Above & Beyond Club Mix)'
p414
sS'97'
p415
S'Mike Koglin & Mark Pledger - All The Way (Original Mix)'
p416
sS'96'
p417
S'Maor Levi - Shapes (Original Mix)'
p418
sS'11'
p419
S'Aalto - Rush (Original Mix)'
p420
sS'12'
p421
S'Rollerball - Albinoni (Above & Beyond Remix)'
p422
sS'15'
p423
S'Nitromethane - Time To Die (Seraque Remix)'
p424
sS'14'
p425
S'Oceanlab - Sky Falls Down (Original Mix)'
p426
sS'17'
p427
S'Rusch & Murray - Epic (Original Mix)'
p428
sS'16'
p429
S'Oceanlab - Beautiful Together (Original Mix)'
p430
sS'19'
p431
S'Matt Hardwick vs. Smith & Pledger - Day One (Original Mix)'
p432
sS'86.1'
p433
S"Purple Mood - One Night In Tokyo (DJ Shah's Savanah Remix)"
p434
sS'86.2'
p435
S'Purple Mood - One Night In Tokyo (Above & Beyond Remix)'
p436
sS'118.2'
p437
S'Cramp - Deadline (Sergey Tkachev Remix)'
p438
sS'62.6'
p439
S"Above & Beyond - Can't Sleep (Maori Remix)"
p440
sS'110.3'
p441
S'Andy Moor - Fake Awake (Myon & Shane 54 Remix)'
p442
sS'110.2'
p443
S'Andy Moor - Fake Awake (Ecomix)'
p444
sS'31.2'
p445
S'Rusch & Murray - The Promise (Ronski Speed Remix)'
p446
sS'9.2'
p447
S'Above & Beyond - Far From In Love (San Fransisco Mix)'
p448
sS'62.7'
p449
S"Above & Beyond - Can't Sleep (Ian Carey Vocal Remix)"
p450
sS'62.4'
p451
S"Above & Beyond - Can't Sleep (Signum Remix)"
p452
sS'134.2'
p453
S'Cold Blue - Mount Everest (Dennis Shepard Remix)'
p454
sS'62.5'
p455
S"Above & Beyond - Can't Sleep (ATB Remix)"
p456
sS'68.2'
p457
S'Mike Shiver - Morning Drive (Probspot Remix)'
p458
sS'19.2'
p459
S'Matt Hardwick vs. Smith & Pledger - Day One (Above & Beyond Big Room Mix)'
p460
sS'19.3'
p461
S"Matt Hardwick vs. Smith & Pledger - Day One (John O'Callaghan Remix)"
p462
sS'140'
p463
S'Mat Zo - Nuclear Fusion (Original Mix)'
p464
sS'30.2'
p465
S'Aalto - Taurine (Super8 Remix)'
p466
sS'128.3'
p467
S'Oliver Smith - Restless (Signalrunners Remix)'
p468
sS'38.3'
p469
S'Stephen J. Kroos - Sadistick (Deep Instrumental Mix)'
p470
sS'38.2'
p471
S'Stephen J. Kroos - Sadistick (Deep Vocal Mix)'
p472
sS'38.5'
p473
S'Stephen J. Kroos - Sadistick (To Be Able Mix)'
p474
sS'38.4'
p475
S'Stephen J. Kroos - Sadistick (Techno Mix)'
p476
sS'81.3'
p477
S'8 Wonders - Sex On The Beach (Anjuna Classic Club Mix)'
p478
sS'81.2'
p479
S'8 Wonders - Sex On The Beach (Depths Of My Thoughts Sunset Dub)'
p480
sS'51.2'
p481
S'Aalto - Resolution (Oliver Prime Remix)'
p482
sS'119.3'
p483
S'Oceanlab - Breaking Ties (Duderstadt Remix)'
p484
sS'81.4'
p485
S'8 Wonders - Sex On The Beach (6 Inch Stiletto Mix)'
p486
sS'111.4'
p487
S'Signalrunners & Julie Thompson - These Shoulders (Paul Wicked Remix)'
p488
sS'5.2'
p489
S"Above & Beyond Pres Tranquility Base - Razorfish (Above & Beyond's Bangin Mix)"
p490
sS'143'
p491
S'Reeves - Call Of Loneliness (Original Mix)'
p492
sS'48'
p493
S'Smith & Pledger - Northern Lights (Original Mix)'
p494
sS'4.2'
p495
S'Free State - Release (Dirt Devils Rumpus Dub)'
p496
sS'9.103'
p497
S'Above & Beyond - Far From In Love (Complexz Remix)'
p498
sS'86'
p499
S'Purple Mood - One Night In Tokyo (Original Mix)'
p500
sS'9.101'
p501
S'Above & Beyond - Far From In Love (Shane 54 On Spec Remix)'
p502
sS'45'
p503
S'Kaste - Desert Eagle (Original Mix)'
p504
sS'107.5'
p505
S'Oceanlab - Miracle (Fletch Remix)'
p506
sS'107.4'
p507
S'Oceanlab - Miracle (Martin Roth Dub)'
p508
sS'40'
p509
S'Mike Koglin vs Jono Grant - Sequential (Original Mix)'
p510
sS'96.2'
p511
S'Maor Levi - Shapes (Oliver Smith Remix)'
p512
sS'124.4'
p513
S'Above & Beyond pres. Oceanlab - On A Good Day (16 Bit Lolitas Remix)'
p514
sS'124.5'
p515
S'Above & Beyond pres. Oceanlab - On A Good Day (16 Bit Lolitas Downbeat Remix)'
p516
sS'77.7'
p517
S'Above & Beyond - Good For Me (Thomas Datt Bootleg Mix)'
p518
sS'98.2'
p519
S'Above & Beyond Pres. Tranquility Base - Buzz (Breakfast Remix)'
p520
sS'5'
p521
S"Above & Beyond Pres Tranquility Base - Razorfish (Above & Beyond's Progressive Mix)"
p522
sS'124.1'
p523
S'Above & Beyond pres. Oceanlab - On A Good Day (Above & Beyond Club Mix)'
p524
sS'124.3'
p525
S'Above & Beyond pres. Oceanlab - On A Good Day (Daniel Kandi Remix)'
p526
sS'77.4'
p527
S'Above & Beyond - Good For Me (Darren Tate Mix)'
p528
sS'1.31'
p529
S'Anjunabeats - Volume One (Tease Dub)'
p530
sS'1.32'
p531
S'Anjunabeats - Volume One (Above & Beyond Remix)'
p532
sS'1.33'
p533
S'Anjunabeats - Volume One (Anjunadeep Mix)'
p534
sS'124.8'
p535
S'Above & Beyond pres. Oceanlab - On A Good Day (Jer Martin Deep Mix)'
p536
sS'47.2'
p537
S'Lucas & Beltram - Trust Me (Ava Mea Mix)'
p538
sS'77.3'
p539
S'Above & Beyond - Good For Me (Album Version)'
p540
sS'5.72'
p541
S"Above & Beyond Pres. Tranquility Base - Razorfish (Aspekt's Chillout Mix)"
p542
sS'91'
p543
S'Above & Beyond Pres. Tranquility Base - Oceanic (Original Mix)'
p544
sS'50.7'
p545
S'Oceanlab - Sirens Of The Sea (Maor Levi Remix)'
p546
sS'143.2'
p547
S'Reeves - Call Of Loneliness (Club Mix)'
p548
sS'93.2'
p549
S'Adam Nickey - Never Gone (David Forbes Remix)'
p550
sS'93.3'
p551
S'Adam Nickey - Never Gone (Sequentia Remix)'
p552
sS'46.2'
p553
S"Super8 + DJ Tab - First Aid (Perry O'Neil Mix)"
p554
sS'59.2'
p555
S'Above & Beyond - Alone Tonight (Ronski Speed Remix)'
p556
sS'111.3'
p557
S'Signalrunners & Julie Thompson - These Shoulders (Oliver Smith Remix)'
p558
sS'77'
p559
S'Above & Beyond - Good For Me (Above & Beyond Club Mix)'
p560
sS'76'
p561
S'Daniel Kandi - Nova (Original Rise Mix)'
p562
sS'75'
p563
S'Sonicvibe Pres. Vardran - Lightform (Original Mix)'
p564
sS'74'
p565
S'Signalrunners - Aria Epica (Original Mix)'
p566
sS'73'
p567
S'Cara Dillon vs. 2Devine - Black Is The Colour (Coco & Green Remix)'
p568
sS'72'
p569
S'Mark Pledger - On The Edge (Original Mix)'
p570
sS'71'
p571
S"Super8 & Tab - Won't Sleep Tonight (Original Mix)"
p572
sS'70'
p573
S'Untitled Audio (Original Mix)'
p574
sS'29.5'
p575
S"Above & Beyond - No One On Earth (Above & Beyond's San Francisco Dub Mix)"
p576
sS'29.4'
p577
S"Above & Beyond - No One On Earth (Above & Beyond's San Francisco Mix)"
p578
sS'29.7'
p579
S'Above & Beyond - No One On Earth (Sonorous Remix)'
p580
sS'29.6'
p581
S'Above & Beyond - No One On Earth (Smith & Pledger Remix)'
p582
sS'85.3'
p583
S'Super8 & Tab - Suru (Martin Roth Electrance Remix)'
p584
sS'85.2'
p585
S'Super8 & Tab - Suru (Martin Roth Nu-Style Remix)'
p586
sS'79'
p587
S'Sunny Lax - Blue Bird (Original Mix)'
p588
sS'78'
p589
S'Super8 & Tab - Needs To Feel (Original Mix)'
p590
sS'103.5'
p591
S'Mark Pledger vs. Matt Hardwick feat. Melinda Gareh - Fallen Tides (Mat Zo Vocal Remix)'
p592
sS'15.2'
p593
S'Nitromethane - Time To Die (Cosmicman Remix)'
p594
sS'64.3'
p595
S'Super8 & P.O.S. Pres. Aalto - 5 (Nitrous Oxide Remix)'
p596
sS'103.4'
p597
S'Mark Pledger vs. Matt Hardwick feat. Melinda Gareh - Fallen Tides (Simon Patterson Remix)'
p598
sS'119.4'
p599
S'Oceanlab - Breaking Ties (Jaytech & James Grant Remix)'
p600
sS'119.5'
p601
S'Oceanlab - Breaking Ties (Maor Levi Remix)'
p602
sS'79.2'
p603
S'Sunny Lax - Blue Bird (Daniel Kandi Remix)'
p604
sS'49'
p605
S'Above & Beyond vs. Andy Moor - Air For Life (Original Mix)'
p606
sS'130.3'
p607
S'Sunny Lax - Reborn (Nawarro Nouplift Remix)'
p608
sS'130.2'
p609
S'Sunny Lax - Reborn (Nitrous Oxide Remix)'
p610
sS'119.2'
p611
S'Oceanlab - Breaking Ties (Martin Roth Remix)'
p612
sS'87.2'
p613
S'Remo-Con - Cold Front (Bart Claessen Remix)'
p614
sS'48.2'
p615
S'Smith & Pledger - Northern Lights (Phil Johnston vs. Aspekt Mix)'
p616
sS'41'
p617
S'Alt+F4 - Alt+F4 (Original Mix)'
p618
sS'64.2'
p619
S"Super8 & P.O.S Pres. Aalto - 5 (Maori's Dark Remix)"
p620
sS'1'
p621
S'Anjunabeats - Volume One (Original Mix)'
p622
sS'111.2'
p623
S'Signalrunners & Julie Thompson - These Shoulders (Club Mix)'
p624
sS'5.71'
p625
S'Above & Beyond Pres. Tranquility Base - Razorfish (Above & Beyond Full On Mix)'
p626
sS'9.102'
p627
S'Above & Beyond - Far From In Love (Airbase Remix)'
p628
sS'91.2'
p629
S'Above & Beyond Pres. Tranquility Base - Oceanic (Super8 & DJ Tab Remix)'
p630
sS'99.2'
p631
S'Signalrunners - Electric Sheep (Nitrous Oxide Remix)'
p632
sS'145.3'
p633
S'Lange pres. Firewall - Wanderlust (Sunny Lax Uplifting Remix)'
p634
sS'145.2'
p635
S'Lange pres. Firewall - Wanderlust (Sunny Lax Chunky Remix)'
p636
sS'132.2'
p637
S'Nitrous Oxide - Aurora (Sunny Lax Remix)'
p638
s.